target datalayout = "e-m:e-p270:32:32-p271:32:32-p272:64:64-i64:64-i128:128-f80:128-n8:16:32:64-S128"
target triple = "x86_64-pc-linux-gnu"

%"struct.rocksdb::UniqueIdPtr" = type <{ ptr, i8, [7 x i8] }>

; Function Attrs: mustprogress uwtable
define void @_ZN7rocksdb26ExternalUniqueIdToInternalENS_11UniqueIdPtrE(ptr %0, i8 %1) #0 {
  %3 = alloca %"struct.rocksdb::UniqueIdPtr", align 8
  %4 = alloca i64, align 8
  %5 = alloca i64, align 8
  %6 = getelementptr inbounds nuw { ptr, i8 }, ptr %3, i32 0, i32 0
  store ptr %0, ptr %6, align 8
  %7 = getelementptr inbounds nuw { ptr, i8 }, ptr %3, i32 0, i32 1
  store i8 %1, ptr %7, align 8
  call void @llvm.lifetime.start.p0(i64 8, ptr %4) #15
  %8 = getelementptr inbounds nuw %"struct.rocksdb::UniqueIdPtr", ptr %3, i32 0, i32 0
  %9 = load ptr, ptr %8, align 8, !tbaa !36
  %10 = getelementptr inbounds i64, ptr %9, i64 0
  %11 = load i64, ptr %10, align 8, !tbaa !4
  store i64 %11, ptr %4, align 8, !tbaa !4
  call void @llvm.lifetime.start.p0(i64 8, ptr %5) #15
  %12 = getelementptr inbounds nuw %"struct.rocksdb::UniqueIdPtr", ptr %3, i32 0, i32 0
  %13 = load ptr, ptr %12, align 8, !tbaa !36
  %14 = getelementptr inbounds i64, ptr %13, i64 1
  %15 = load i64, ptr %14, align 8, !tbaa !4
  store i64 %15, ptr %5, align 8, !tbaa !4
  %16 = getelementptr inbounds nuw %"struct.rocksdb::UniqueIdPtr", ptr %3, i32 0, i32 1
  %17 = load i8, ptr %16, align 8, !tbaa !38, !range !21, !noundef !22
  %18 = trunc i8 %17 to i1
  br i1 %18, label %19, label %28

19:                                               ; preds = %2
  %20 = load i64, ptr %4, align 8, !tbaa !4
  %21 = load i64, ptr %5, align 8, !tbaa !4
  %22 = add i64 %20, %21
  %23 = getelementptr inbounds nuw %"struct.rocksdb::UniqueIdPtr", ptr %3, i32 0, i32 0
  %24 = load ptr, ptr %23, align 8, !tbaa !36
  %25 = getelementptr inbounds i64, ptr %24, i64 2
  %26 = load i64, ptr %25, align 8, !tbaa !4
  %27 = sub i64 %26, %22
  store i64 %27, ptr %25, align 8, !tbaa !4
  br label %28

28:                                               ; preds = %19, %2
  %29 = load i64, ptr %5, align 8, !tbaa !4
  %30 = load i64, ptr %4, align 8, !tbaa !4
  call void @_ZN7rocksdb19BijectiveUnhash2x64EmmPmS0_(i64 noundef %29, i64 noundef %30, ptr noundef %5, ptr noundef %4)
  %31 = load i64, ptr %4, align 8, !tbaa !4
  %32 = sub i64 %31, 6417269962128484497
  %33 = getelementptr inbounds nuw %"struct.rocksdb::UniqueIdPtr", ptr %3, i32 0, i32 0
  %34 = load ptr, ptr %33, align 8, !tbaa !36
  %35 = getelementptr inbounds i64, ptr %34, i64 0
  store i64 %32, ptr %35, align 8, !tbaa !4
  %36 = load i64, ptr %5, align 8, !tbaa !4
  %37 = sub i64 %36, -1055665268803122216
  %38 = getelementptr inbounds nuw %"struct.rocksdb::UniqueIdPtr", ptr %3, i32 0, i32 0
  %39 = load ptr, ptr %38, align 8, !tbaa !36
  %40 = getelementptr inbounds i64, ptr %39, i64 1
  store i64 %37, ptr %40, align 8, !tbaa !4
  call void @llvm.lifetime.end.p0(i64 8, ptr %5) #15
  call void @llvm.lifetime.end.p0(i64 8, ptr %4) #15
  ret void
}