; Function Attrs: mustprogress uwtable
define void @_ZN7rocksdb26ExternalUniqueIdToInternalENS_11UniqueIdPtrE(ptr captures(none) %0, i8 %1) local_unnamed_addr #0 {
  %3 = alloca i64, align 8
  %4 = alloca i64, align 8
  call void @llvm.lifetime.start.p0(i64 8, ptr nonnull %3) #10
  %5 = load i64, ptr %0, align 8, !tbaa !20
  store i64 %5, ptr %3, align 8, !tbaa !20
  call void @llvm.lifetime.start.p0(i64 8, ptr nonnull %4) #10
  %6 = getelementptr inbounds nuw i8, ptr %0, i64 8
  %7 = load i64, ptr %6, align 8, !tbaa !20
  store i64 %7, ptr %4, align 8, !tbaa !20
  %8 = trunc i8 %1 to i1
  br i1 %8, label %9, label %14

9:                                                ; preds = %2
  %10 = getelementptr inbounds nuw i8, ptr %0, i64 16
  %11 = load i64, ptr %10, align 8, !tbaa !20
  %12 = add i64 %7, %5
  %13 = sub i64 %11, %12
  store i64 %13, ptr %10, align 8, !tbaa !20
  br label %14

14:                                               ; preds = %9, %2
  call void @_ZN7rocksdb19BijectiveUnhash2x64EmmPmS0_(i64 noundef %7, i64 noundef %5, ptr noundef nonnull %4, ptr noundef nonnull %3)
  %15 = load i64, ptr %3, align 8, !tbaa !20
  %16 = add i64 %15, -6417269962128484497
  store i64 %16, ptr %0, align 8, !tbaa !20
  %17 = load i64, ptr %4, align 8, !tbaa !20
  %18 = add i64 %17, 1055665268803122216
  store i64 %18, ptr %6, align 8, !tbaa !20
  call void @llvm.lifetime.end.p0(i64 8, ptr nonnull %4) #10
  call void @llvm.lifetime.end.p0(i64 8, ptr nonnull %3) #10
  ret void
}